; Function Attrs: nounwind sspstrong uwtable
define dso_local void @rb_ractor_stdin_set(i64 noundef %0) local_unnamed_addr #0 {
  %2 = load ptr, ptr @ruby_single_main_ractor, align 8, !tbaa !39
  %.not.i = icmp eq ptr %2, null
  br i1 %.not.i, label %rb_ractor_main_p.exit, label %rb_ractor_main_p.exit.thread

rb_ractor_main_p.exit:                            ; preds = %1
  %3 = tail call align 8 ptr @llvm.threadlocal.address.p0(ptr align 8 @ruby_current_ec)
  %4 = load ptr, ptr %3, align 8, !tbaa !123
  %5 = getelementptr i8, ptr %4, i64 48
  %.val.i.i = load ptr, ptr %5, align 8, !tbaa !90, !nonnull !99, !noundef !99
  %6 = getelementptr inbounds nuw i8, ptr %.val.i.i, i64 24
  %7 = load ptr, ptr %6, align 8, !tbaa !57
  %8 = getelementptr inbounds nuw i8, ptr %.val.i.i, i64 32
  %9 = load ptr, ptr %8, align 8, !tbaa !79
  %10 = getelementptr inbounds nuw i8, ptr %9, i64 32
  %11 = load ptr, ptr %10, align 8, !tbaa !124
  %12 = icmp eq ptr %7, %11
  br i1 %12, label %rb_ractor_main_p.exit.thread, label %rb_current_ractor.exit

rb_ractor_main_p.exit.thread:                     ; preds = %1, %rb_ractor_main_p.exit
  store i64 %0, ptr @rb_stdin, align 8, !tbaa !80
  br label %rb_obj_write.exit

rb_current_ractor.exit:                           ; preds = %rb_ractor_main_p.exit
  %13 = load i64, ptr %7, align 8, !tbaa !37
  %14 = getelementptr inbounds nuw i8, ptr %7, i64 472
  store i64 %0, ptr %14, align 8, !tbaa !80
  %15 = icmp eq i64 %0, 0
  %16 = and i64 %0, 7
  %17 = icmp ne i64 %16, 0
  %18 = or i1 %15, %17
  br i1 %18, label %rb_obj_write.exit, label %19

19:                                               ; preds = %rb_current_ractor.exit
  tail call void @rb_gc_writebarrier(i64 noundef %13, i64 noundef %0) #19
  br label %rb_obj_write.exit

rb_obj_write.exit:                                ; preds = %19, %rb_current_ractor.exit, %rb_ractor_main_p.exit.thread
  ret void
}